; Function Attrs: mustprogress uwtable
define void @_ZN5faiss19demangle_cpp_symbolB5cxx11EPKc(ptr dead_on_unwind noalias writable sret(%"class.std::__cxx11::basic_string") align 8 %0, ptr noundef %1) local_unnamed_addr #1 personality ptr @__gxx_personality_v0 {
  %3 = alloca i32, align 4
  store i32 -1, ptr %3, align 4
  %4 = call ptr @__cxa_demangle(ptr noundef %1, ptr noundef null, ptr noundef null, ptr noundef nonnull %3)
  call void @_ZNSt7__cxx1112basic_stringIcSt11char_traitsIcESaIcEEC1Ev(ptr noundef nonnull align 8 dereferenceable(32) %0) #10
  %5 = load i32, ptr %3, align 4
  %6 = icmp eq i32 %5, 0
  br i1 %6, label %7, label %11

7:                                                ; preds = %2
  %8 = invoke noundef nonnull align 8 dereferenceable(32) ptr @_ZNSt7__cxx1112basic_stringIcSt11char_traitsIcESaIcEEaSEPKc(ptr noundef nonnull align 8 dereferenceable(32) %0, ptr noundef %4)
          to label %11 unwind label %9

9:                                                ; preds = %7
  %10 = landingpad { ptr, i32 }
          cleanup
  call void @_ZNSt7__cxx1112basic_stringIcSt11char_traitsIcESaIcEED1Ev(ptr noundef nonnull align 8 dereferenceable(32) %0) #10
  resume { ptr, i32 } %10

11:                                               ; preds = %7, %2
  call void @free(ptr noundef %4) #10
  ret void
}